target datalayout = "e-m:e-p270:32:32-p271:32:32-p272:64:64-i64:64-i128:128-f80:128-n8:16:32:64-S128"
target triple = "x86_64-pc-linux-gnu"

%struct.sljit_compiler = type { i32, i32, ptr, ptr, ptr, ptr, ptr, ptr, ptr, ptr, ptr, ptr, ptr, ptr, i32, i32, i32, i32, i32, i64, i64, i64, i32 }

; Function Attrs: nounwind uwtable
define internal i32 @emit_unary(ptr noundef %0, i8 noundef zeroext %1, i32 noundef %2, i64 noundef %3, i32 noundef %4, i64 noundef %5) #0 {
  %7 = alloca i32, align 4
  %8 = alloca ptr, align 8
  %9 = alloca i8, align 1
  %10 = alloca i32, align 4
  %11 = alloca i64, align 8
  %12 = alloca i32, align 4
  %13 = alloca i64, align 8
  %14 = alloca ptr, align 8
  store ptr %0, ptr %8, align 8
  store i8 %1, ptr %9, align 1
  store i32 %2, ptr %10, align 4
  store i64 %3, ptr %11, align 8
  store i32 %4, ptr %12, align 4
  store i64 %5, ptr %13, align 8
  %15 = load i32, ptr %10, align 4
  %16 = load i32, ptr %12, align 4
  %17 = icmp eq i32 %15, %16
  br i1 %17, label %18, label %50

18:                                               ; preds = %6
  %19 = load i64, ptr %11, align 8
  %20 = load i64, ptr %13, align 8
  %21 = icmp eq i64 %19, %20
  br i1 %21, label %22, label %50

22:                                               ; preds = %18
  %23 = load ptr, ptr %8, align 8
  %24 = load i32, ptr %10, align 4
  %25 = load i64, ptr %11, align 8
  %26 = call ptr @emit_x86_instruction(ptr noundef %23, i64 noundef 1, i32 noundef 0, i64 noundef 0, i32 noundef %24, i64 noundef %25)
  store ptr %26, ptr %14, align 8
  br label %27

27:                                               ; preds = %22
  %28 = load ptr, ptr %14, align 8
  %29 = icmp ne ptr %28, null
  %30 = xor i1 %29, true
  %31 = zext i1 %30 to i32
  %32 = sext i32 %31 to i64
  %33 = icmp ne i64 %32, 0
  br i1 %33, label %34, label %38

34:                                               ; preds = %27
  %35 = load ptr, ptr %8, align 8
  %36 = getelementptr inbounds %struct.sljit_compiler, ptr %35, i32 0, i32 0
  %37 = load i32, ptr %36, align 8
  store i32 %37, ptr %7, align 4
  br label %146

38:                                               ; preds = %27
  br label %39

39:                                               ; preds = %38
  %40 = load ptr, ptr %14, align 8
  %41 = getelementptr inbounds i8, ptr %40, i64 0
  store i8 -9, ptr %41, align 1
  %42 = load i8, ptr %9, align 1
  %43 = zext i8 %42 to i32
  %44 = load ptr, ptr %14, align 8
  %45 = getelementptr inbounds i8, ptr %44, i64 1
  %46 = load i8, ptr %45, align 1
  %47 = zext i8 %46 to i32
  %48 = or i32 %47, %43
  %49 = trunc i32 %48 to i8
  store i8 %49, ptr %45, align 1
  store i32 0, ptr %7, align 4
  br label %146

50:                                               ; preds = %18, %6
  %51 = load i32, ptr %10, align 4
  %52 = icmp slt i32 %51, 127
  br i1 %52, label %53, label %94

53:                                               ; preds = %50
  br label %54

54:                                               ; preds = %53
  %55 = load ptr, ptr %8, align 8
  %56 = load i32, ptr %10, align 4
  %57 = load i32, ptr %12, align 4
  %58 = load i64, ptr %13, align 8
  %59 = call i32 @emit_mov(ptr noundef %55, i32 noundef %56, i64 noundef 0, i32 noundef %57, i64 noundef %58)
  %60 = sext i32 %59 to i64
  %61 = icmp ne i64 %60, 0
  br i1 %61, label %62, label %66

62:                                               ; preds = %54
  %63 = load ptr, ptr %8, align 8
  %64 = getelementptr inbounds %struct.sljit_compiler, ptr %63, i32 0, i32 0
  %65 = load i32, ptr %64, align 8
  store i32 %65, ptr %7, align 4
  br label %146

66:                                               ; preds = %54
  br label %67

67:                                               ; preds = %66
  %68 = load ptr, ptr %8, align 8
  %69 = load i32, ptr %10, align 4
  %70 = call ptr @emit_x86_instruction(ptr noundef %68, i64 noundef 1, i32 noundef 0, i64 noundef 0, i32 noundef %69, i64 noundef 0)
  store ptr %70, ptr %14, align 8
  br label %71

71:                                               ; preds = %67
  %72 = load ptr, ptr %14, align 8
  %73 = icmp ne ptr %72, null
  %74 = xor i1 %73, true
  %75 = zext i1 %74 to i32
  %76 = sext i32 %75 to i64
  %77 = icmp ne i64 %76, 0
  br i1 %77, label %78, label %82

78:                                               ; preds = %71
  %79 = load ptr, ptr %8, align 8
  %80 = getelementptr inbounds %struct.sljit_compiler, ptr %79, i32 0, i32 0
  %81 = load i32, ptr %80, align 8
  store i32 %81, ptr %7, align 4
  br label %146

82:                                               ; preds = %71
  br label %83

83:                                               ; preds = %82
  %84 = load ptr, ptr %14, align 8
  %85 = getelementptr inbounds i8, ptr %84, i64 0
  store i8 -9, ptr %85, align 1
  %86 = load i8, ptr %9, align 1
  %87 = zext i8 %86 to i32
  %88 = load ptr, ptr %14, align 8
  %89 = getelementptr inbounds i8, ptr %88, i64 1
  %90 = load i8, ptr %89, align 1
  %91 = zext i8 %90 to i32
  %92 = or i32 %91, %87
  %93 = trunc i32 %92 to i8
  store i8 %93, ptr %89, align 1
  store i32 0, ptr %7, align 4
  br label %146

94:                                               ; preds = %50
  br label %95

95:                                               ; preds = %94
  %96 = load ptr, ptr %8, align 8
  %97 = load i32, ptr %12, align 4
  %98 = load i64, ptr %13, align 8
  %99 = call i32 @emit_mov(ptr noundef %96, i32 noundef 15, i64 noundef 0, i32 noundef %97, i64 noundef %98)
  %100 = sext i32 %99 to i64
  %101 = icmp ne i64 %100, 0
  br i1 %101, label %102, label %106

102:                                              ; preds = %95
  %103 = load ptr, ptr %8, align 8
  %104 = getelementptr inbounds %struct.sljit_compiler, ptr %103, i32 0, i32 0
  %105 = load i32, ptr %104, align 8
  store i32 %105, ptr %7, align 4
  br label %146

106:                                              ; preds = %95
  br label %107

107:                                              ; preds = %106
  %108 = load ptr, ptr %8, align 8
  %109 = call ptr @emit_x86_instruction(ptr noundef %108, i64 noundef 1, i32 noundef 0, i64 noundef 0, i32 noundef 15, i64 noundef 0)
  store ptr %109, ptr %14, align 8
  br label %110

110:                                              ; preds = %107
  %111 = load ptr, ptr %14, align 8
  %112 = icmp ne ptr %111, null
  %113 = xor i1 %112, true
  %114 = zext i1 %113 to i32
  %115 = sext i32 %114 to i64
  %116 = icmp ne i64 %115, 0
  br i1 %116, label %117, label %121

117:                                              ; preds = %110
  %118 = load ptr, ptr %8, align 8
  %119 = getelementptr inbounds %struct.sljit_compiler, ptr %118, i32 0, i32 0
  %120 = load i32, ptr %119, align 8
  store i32 %120, ptr %7, align 4
  br label %146

121:                                              ; preds = %110
  br label %122

122:                                              ; preds = %121
  %123 = load ptr, ptr %14, align 8
  %124 = getelementptr inbounds i8, ptr %123, i64 0
  store i8 -9, ptr %124, align 1
  %125 = load i8, ptr %9, align 1
  %126 = zext i8 %125 to i32
  %127 = load ptr, ptr %14, align 8
  %128 = getelementptr inbounds i8, ptr %127, i64 1
  %129 = load i8, ptr %128, align 1
  %130 = zext i8 %129 to i32
  %131 = or i32 %130, %126
  %132 = trunc i32 %131 to i8
  store i8 %132, ptr %128, align 1
  br label %133

133:                                              ; preds = %122
  %134 = load ptr, ptr %8, align 8
  %135 = load i32, ptr %10, align 4
  %136 = load i64, ptr %11, align 8
  %137 = call i32 @emit_mov(ptr noundef %134, i32 noundef %135, i64 noundef %136, i32 noundef 15, i64 noundef 0)
  %138 = sext i32 %137 to i64
  %139 = icmp ne i64 %138, 0
  br i1 %139, label %140, label %144

140:                                              ; preds = %133
  %141 = load ptr, ptr %8, align 8
  %142 = getelementptr inbounds %struct.sljit_compiler, ptr %141, i32 0, i32 0
  %143 = load i32, ptr %142, align 8
  store i32 %143, ptr %7, align 4
  br label %146

144:                                              ; preds = %133
  br label %145

145:                                              ; preds = %144
  store i32 0, ptr %7, align 4
  br label %146

146:                                              ; preds = %145, %140, %117, %102, %83, %78, %62, %39, %34
  %147 = load i32, ptr %7, align 4
  ret i32 %147
}