; Function Attrs: nounwind uwtable
define internal fastcc i32 @emit_unary(ptr nocapture noundef %0, i8 noundef zeroext %1, i32 noundef %2, i64 noundef %3, i32 noundef %4, i64 noundef %5) unnamed_addr #0 {
  %7 = icmp eq i32 %2, %4
  %8 = icmp eq i64 %3, %5
  %or.cond = and i1 %7, %8
  br i1 %or.cond, label %9, label %17

9:                                                ; preds = %6
  %10 = tail call fastcc ptr @emit_x86_instruction(ptr noundef %0, i64 noundef 1, i32 noundef 0, i64 noundef 0, i32 noundef %2, i64 noundef %3)
  %.not45 = icmp eq ptr %10, null
  br i1 %.not45, label %11, label %13

11:                                               ; preds = %9
  %12 = load i32, ptr %0, align 8
  br label %71

13:                                               ; preds = %9
  store i8 -9, ptr %10, align 1
  %14 = getelementptr inbounds i8, ptr %10, i64 1
  %15 = load i8, ptr %14, align 1
  %16 = or i8 %15, %1
  store i8 %16, ptr %14, align 1
  br label %71

17:                                               ; preds = %6
  %18 = icmp slt i32 %2, 127
  br i1 %18, label %19, label %31

19:                                               ; preds = %17
  %20 = tail call fastcc i32 @emit_mov(ptr noundef %0, i32 noundef %2, i64 noundef 0, i32 noundef %4, i64 noundef %5)
  %.not43 = icmp eq i32 %20, 0
  br i1 %.not43, label %23, label %21

21:                                               ; preds = %19
  %22 = load i32, ptr %0, align 8
  br label %71

23:                                               ; preds = %19
  %24 = tail call fastcc ptr @emit_x86_instruction(ptr noundef %0, i64 noundef 1, i32 noundef 0, i64 noundef 0, i32 noundef %2, i64 noundef 0)
  %.not44 = icmp eq ptr %24, null
  br i1 %.not44, label %25, label %27

25:                                               ; preds = %23
  %26 = load i32, ptr %0, align 8
  br label %71

27:                                               ; preds = %23
  store i8 -9, ptr %24, align 1
  %28 = getelementptr inbounds i8, ptr %24, i64 1
  %29 = load i8, ptr %28, align 1
  %30 = or i8 %29, %1
  store i8 %30, ptr %28, align 1
  br label %71

31:                                               ; preds = %17
  %32 = tail call fastcc i32 @emit_mov(ptr noundef %0, i32 noundef 15, i64 noundef 0, i32 noundef %4, i64 noundef %5)
  %.not = icmp eq i32 %32, 0
  br i1 %.not, label %35, label %33

33:                                               ; preds = %31
  %34 = load i32, ptr %0, align 8
  br label %71

35:                                               ; preds = %31
  %36 = getelementptr inbounds i8, ptr %0, i64 152
  %37 = load i32, ptr %36, align 8
  %.not.i = icmp eq i32 %37, 0
  %spec.select267.i = select i1 %.not.i, i64 3, i64 2
  %38 = add nuw nsw i64 %spec.select267.i, 1
  %39 = getelementptr inbounds i8, ptr %0, i64 88
  %40 = load ptr, ptr %39, align 8
  %41 = getelementptr inbounds i8, ptr %40, i64 8
  %42 = load i64, ptr %41, align 8
  %43 = add i64 %38, %42
  %44 = icmp ult i64 %43, 4081
  br i1 %44, label %45, label %48

45:                                               ; preds = %35
  %46 = getelementptr inbounds i8, ptr %40, i64 16
  %47 = getelementptr inbounds i8, ptr %46, i64 %42
  store i64 %43, ptr %41, align 8
  br label %57

48:                                               ; preds = %35
  %49 = getelementptr inbounds i8, ptr %0, i64 72
  %50 = load ptr, ptr %49, align 8
  %.val.i.i = load ptr, ptr %50, align 8
  %51 = getelementptr i8, ptr %50, i64 16
  %.val18.i.i = load ptr, ptr %51, align 8
  %52 = tail call ptr %.val.i.i(i64 noundef 4096, ptr noundef %.val18.i.i) #18
  %.not.i.i = icmp eq ptr %52, null
  br i1 %.not.i.i, label %65, label %53

53:                                               ; preds = %48
  %54 = load ptr, ptr %39, align 8
  store ptr %54, ptr %52, align 8
  store ptr %52, ptr %39, align 8
  %55 = getelementptr inbounds i8, ptr %52, i64 8
  store i64 %38, ptr %55, align 8
  %56 = getelementptr inbounds i8, ptr %52, i64 16
  br label %57

57:                                               ; preds = %53, %45
  %.0.i269.ph.i = phi ptr [ %56, %53 ], [ %47, %45 ]
  %58 = trunc i64 %spec.select267.i to i8
  %59 = getelementptr inbounds i8, ptr %.0.i269.ph.i, i64 1
  store i8 %58, ptr %.0.i269.ph.i, align 1
  %60 = getelementptr inbounds i8, ptr %0, i64 128
  %61 = load i64, ptr %60, align 8
  %62 = add i64 %61, %spec.select267.i
  store i64 %62, ptr %60, align 8
  br i1 %.not.i, label %63, label %66

63:                                               ; preds = %57
  %64 = getelementptr inbounds i8, ptr %.0.i269.ph.i, i64 2
  store i8 72, ptr %59, align 1
  br label %66

65:                                               ; preds = %48
  store i32 2, ptr %0, align 8
  br label %71

66:                                               ; preds = %63, %57
  %.1198.i = phi ptr [ %64, %63 ], [ %59, %57 ]
  %67 = getelementptr inbounds i8, ptr %.1198.i, i64 1
  store i8 -9, ptr %.1198.i, align 1
  %68 = or i8 %1, -62
  store i8 %68, ptr %67, align 1
  %69 = tail call fastcc ptr @emit_x86_instruction(ptr noundef nonnull %0, i64 noundef 1, i32 noundef 15, i64 noundef 0, i32 noundef %2, i64 noundef %3)
  %.not73.i = icmp eq ptr %69, null
  br i1 %.not73.i, label %emit_mov.exit, label %emit_mov.exit.thread

emit_mov.exit.thread:                             ; preds = %66
  store i8 -119, ptr %69, align 1
  br label %71

emit_mov.exit:                                    ; preds = %66
  %70 = load i32, ptr %0, align 8
  br label %71

71:                                               ; preds = %emit_mov.exit, %emit_mov.exit.thread, %65, %33, %27, %25, %21, %13, %11
  %.0 = phi i32 [ %12, %11 ], [ 0, %13 ], [ %22, %21 ], [ %26, %25 ], [ 0, %27 ], [ %34, %33 ], [ 2, %65 ], [ 0, %emit_mov.exit.thread ], [ %70, %emit_mov.exit ]
  ret i32 %.0
}